target datalayout = "e-m:e-p270:32:32-p271:32:32-p272:64:64-i64:64-i128:128-f80:128-n8:16:32:64-S128"
target triple = "x86_64-pc-linux-gnu"

%"struct.pkpy::Tuple" = type <{ ptr, [3 x ptr], i32, [4 x i8] }>
%"struct.pkpy::ArgsView" = type { ptr, ptr }

@_ZN4pkpy5TupleC1Ei = unnamed_addr alias void (ptr, i32), ptr @_ZN4pkpy5TupleC2Ei
@_ZN4pkpy5TupleD1Ev = unnamed_addr alias void (ptr), ptr @_ZN4pkpy5TupleD2Ev

; Function Attrs: mustprogress nounwind uwtable
define linkonce_odr noundef nonnull align 8 dereferenceable(8) ptr @_ZN4pkpy5TupleixEi(ptr noundef nonnull align 8 dereferenceable(36) %0, i32 noundef %1) #4 comdat align 2 {
  %3 = alloca ptr, align 8
  %4 = alloca i32, align 4
  store ptr %0, ptr %3, align 8
  store i32 %1, ptr %4, align 4
  %5 = load ptr, ptr %3, align 8
  %6 = getelementptr inbounds %"struct.pkpy::Tuple", ptr %5, i32 0, i32 0
  %7 = load ptr, ptr %6, align 8
  %8 = load i32, ptr %4, align 4
  %9 = sext i32 %8 to i64
  %10 = getelementptr inbounds ptr, ptr %7, i64 %9
  ret ptr %10
}

; Function Attrs: mustprogress nounwind uwtable
define linkonce_odr noundef i32 @_ZNK4pkpy8ArgsView4sizeEv(ptr noundef nonnull align 8 dereferenceable(16) %0) #4 comdat align 2 {
  %2 = alloca ptr, align 8
  store ptr %0, ptr %2, align 8
  %3 = load ptr, ptr %2, align 8
  %4 = getelementptr inbounds %"struct.pkpy::ArgsView", ptr %3, i32 0, i32 1
  %5 = load ptr, ptr %4, align 8
  %6 = getelementptr inbounds %"struct.pkpy::ArgsView", ptr %3, i32 0, i32 0
  %7 = load ptr, ptr %6, align 8
  %8 = ptrtoint ptr %5 to i64
  %9 = ptrtoint ptr %7 to i64
  %10 = sub i64 %8, %9
  %11 = sdiv exact i64 %10, 8
  %12 = trunc i64 %11 to i32
  ret i32 %12
}

; Function Attrs: mustprogress uwtable
define void @_ZNK4pkpy8ArgsView8to_tupleEv(ptr dead_on_unwind noalias writable sret(%"struct.pkpy::Tuple") align 8 %0, ptr noundef nonnull align 8 dereferenceable(16) %1) #6 align 2 personality ptr @__gxx_personality_v0 {
  %3 = alloca ptr, align 8
  %4 = alloca ptr, align 8
  %5 = alloca i1, align 1
  %6 = alloca i32, align 4
  %7 = alloca ptr, align 8
  %8 = alloca i32, align 4
  store ptr %0, ptr %3, align 8
  store ptr %1, ptr %4, align 8
  %9 = load ptr, ptr %4, align 8
  store i1 false, ptr %5, align 1
  %10 = call noundef i32 @_ZNK4pkpy8ArgsView4sizeEv(ptr noundef nonnull align 8 dereferenceable(16) %9)
  call void @_ZN4pkpy5TupleC1Ei(ptr noundef nonnull align 8 dereferenceable(36) %0, i32 noundef %10)
  store i32 0, ptr %6, align 4
  br label %11

11:                                               ; preds = %26, %2
  %12 = load i32, ptr %6, align 4
  %13 = invoke noundef i32 @_ZNK4pkpy8ArgsView4sizeEv(ptr noundef nonnull align 8 dereferenceable(16) %9)
          to label %14 unwind label %29

14:                                               ; preds = %11
  %15 = icmp slt i32 %12, %13
  br i1 %15, label %16, label %33

16:                                               ; preds = %14
  %17 = getelementptr inbounds %"struct.pkpy::ArgsView", ptr %9, i32 0, i32 0
  %18 = load ptr, ptr %17, align 8
  %19 = load i32, ptr %6, align 4
  %20 = sext i32 %19 to i64
  %21 = getelementptr inbounds ptr, ptr %18, i64 %20
  %22 = load ptr, ptr %21, align 8
  %23 = load i32, ptr %6, align 4
  %24 = invoke noundef nonnull align 8 dereferenceable(8) ptr @_ZN4pkpy5TupleixEi(ptr noundef nonnull align 8 dereferenceable(36) %0, i32 noundef %23)
          to label %25 unwind label %29

25:                                               ; preds = %16
  store ptr %22, ptr %24, align 8
  br label %26

26:                                               ; preds = %25
  %27 = load i32, ptr %6, align 4
  %28 = add nsw i32 %27, 1
  store i32 %28, ptr %6, align 4
  br label %11, !llvm.loop !8

29:                                               ; preds = %16, %11
  %30 = landingpad { ptr, i32 }
          cleanup
  %31 = extractvalue { ptr, i32 } %30, 0
  store ptr %31, ptr %7, align 8
  %32 = extractvalue { ptr, i32 } %30, 1
  store i32 %32, ptr %8, align 4
  call void @_ZN4pkpy5TupleD1Ev(ptr noundef nonnull align 8 dereferenceable(36) %0) #3
  br label %37

33:                                               ; preds = %14
  store i1 true, ptr %5, align 1
  %34 = load i1, ptr %5, align 1
  br i1 %34, label %36, label %35

35:                                               ; preds = %33
  call void @_ZN4pkpy5TupleD1Ev(ptr noundef nonnull align 8 dereferenceable(36) %0) #3
  br label %36

36:                                               ; preds = %35, %33
  ret void

37:                                               ; preds = %29
  %38 = load ptr, ptr %7, align 8
  %39 = load i32, ptr %8, align 4
  %40 = insertvalue { ptr, i32 } poison, ptr %38, 0
  %41 = insertvalue { ptr, i32 } %40, i32 %39, 1
  resume { ptr, i32 } %41
}