; Function Attrs: mustprogress uwtable
define void @_ZNK4pkpy8ArgsView8to_tupleEv(ptr dead_on_unwind noalias writable sret(%"struct.pkpy::Tuple") align 8 %0, ptr nocapture noundef nonnull readonly align 8 dereferenceable(16) %1) local_unnamed_addr #7 align 2 personality ptr @__gxx_personality_v0 {
  %3 = getelementptr inbounds i8, ptr %1, i64 8
  %4 = load ptr, ptr %3, align 8
  %5 = load ptr, ptr %1, align 8
  %6 = ptrtoint ptr %4 to i64
  %7 = ptrtoint ptr %5 to i64
  %8 = sub i64 %6, %7
  %9 = lshr exact i64 %8, 3
  %10 = trunc i64 %9 to i32
  tail call void @_ZN4pkpy5TupleC1Ei(ptr noundef nonnull align 8 dereferenceable(36) %0, i32 noundef %10)
  %11 = load ptr, ptr %3, align 8
  %12 = load ptr, ptr %1, align 8
  %13 = ptrtoint ptr %11 to i64
  %14 = ptrtoint ptr %12 to i64
  %15 = sub i64 %13, %14
  %16 = lshr exact i64 %15, 3
  %17 = trunc i64 %16 to i32
  %18 = icmp sgt i32 %17, 0
  br i1 %18, label %.lr.ph, label %._crit_edge

.lr.ph:                                           ; preds = %2, %.lr.ph
  %indvars.iv = phi i64 [ %indvars.iv.next, %.lr.ph ], [ 0, %2 ]
  %19 = phi ptr [ %25, %.lr.ph ], [ %12, %2 ]
  %20 = getelementptr inbounds ptr, ptr %19, i64 %indvars.iv
  %21 = load ptr, ptr %20, align 8
  %22 = load ptr, ptr %0, align 8
  %23 = getelementptr inbounds ptr, ptr %22, i64 %indvars.iv
  store ptr %21, ptr %23, align 8
  %indvars.iv.next = add nuw nsw i64 %indvars.iv, 1
  %24 = load ptr, ptr %3, align 8
  %25 = load ptr, ptr %1, align 8
  %26 = ptrtoint ptr %24 to i64
  %27 = ptrtoint ptr %25 to i64
  %28 = sub i64 %26, %27
  %sext = shl i64 %28, 29
  %29 = ashr i64 %sext, 32
  %30 = icmp slt i64 %indvars.iv.next, %29
  br i1 %30, label %.lr.ph, label %._crit_edge, !llvm.loop !8

._crit_edge:                                      ; preds = %.lr.ph, %2
  ret void
}